target datalayout = "e-m:e-p270:32:32-p271:32:32-p272:64:64-i64:64-i128:128-f80:128-n8:16:32:64-S128"
target triple = "x86_64-pc-linux-gnu"

; Function Attrs: nounwind uwtable
define dso_local void @hllSparseRegHisto(ptr noundef %0, i32 noundef %1, ptr noundef %2, ptr noundef %3) #0 {
  %5 = alloca ptr, align 8
  %6 = alloca i32, align 4
  %7 = alloca ptr, align 8
  %8 = alloca ptr, align 8
  %9 = alloca i32, align 4
  %10 = alloca i32, align 4
  %11 = alloca i32, align 4
  %12 = alloca ptr, align 8
  %13 = alloca ptr, align 8
  store ptr %0, ptr %5, align 8, !tbaa !13
  store i32 %1, ptr %6, align 4, !tbaa !9
  store ptr %2, ptr %7, align 8, !tbaa !20
  store ptr %3, ptr %8, align 8, !tbaa !20
  call void @llvm.lifetime.start.p0(i64 4, ptr %9) #15
  store i32 0, ptr %9, align 4, !tbaa !9
  call void @llvm.lifetime.start.p0(i64 4, ptr %10) #15
  call void @llvm.lifetime.start.p0(i64 4, ptr %11) #15
  call void @llvm.lifetime.start.p0(i64 8, ptr %12) #15
  %14 = load ptr, ptr %5, align 8, !tbaa !13
  %15 = load i32, ptr %6, align 4, !tbaa !9
  %16 = sext i32 %15 to i64
  %17 = getelementptr inbounds i8, ptr %14, i64 %16
  store ptr %17, ptr %12, align 8, !tbaa !13
  call void @llvm.lifetime.start.p0(i64 8, ptr %13) #15
  %18 = load ptr, ptr %5, align 8, !tbaa !13
  store ptr %18, ptr %13, align 8, !tbaa !13
  br label %19

19:                                               ; preds = %98, %4
  %20 = load ptr, ptr %13, align 8, !tbaa !13
  %21 = load ptr, ptr %12, align 8, !tbaa !13
  %22 = icmp ult ptr %20, %21
  br i1 %22, label %23, label %99

23:                                               ; preds = %19
  %24 = load ptr, ptr %13, align 8, !tbaa !13
  %25 = load i8, ptr %24, align 1, !tbaa !17
  %26 = zext i8 %25 to i32
  %27 = and i32 %26, 192
  %28 = icmp eq i32 %27, 0
  br i1 %28, label %29, label %45

29:                                               ; preds = %23
  %30 = load ptr, ptr %13, align 8, !tbaa !13
  %31 = load i8, ptr %30, align 1, !tbaa !17
  %32 = zext i8 %31 to i32
  %33 = and i32 %32, 63
  %34 = add nsw i32 %33, 1
  store i32 %34, ptr %10, align 4, !tbaa !9
  %35 = load i32, ptr %10, align 4, !tbaa !9
  %36 = load i32, ptr %9, align 4, !tbaa !9
  %37 = add nsw i32 %36, %35
  store i32 %37, ptr %9, align 4, !tbaa !9
  %38 = load i32, ptr %10, align 4, !tbaa !9
  %39 = load ptr, ptr %8, align 8, !tbaa !20
  %40 = getelementptr inbounds i32, ptr %39, i64 0
  %41 = load i32, ptr %40, align 4, !tbaa !9
  %42 = add nsw i32 %41, %38
  store i32 %42, ptr %40, align 4, !tbaa !9
  %43 = load ptr, ptr %13, align 8, !tbaa !13
  %44 = getelementptr inbounds nuw i8, ptr %43, i32 1
  store ptr %44, ptr %13, align 8, !tbaa !13
  br label %98

45:                                               ; preds = %23
  %46 = load ptr, ptr %13, align 8, !tbaa !13
  %47 = load i8, ptr %46, align 1, !tbaa !17
  %48 = zext i8 %47 to i32
  %49 = and i32 %48, 192
  %50 = icmp eq i32 %49, 64
  br i1 %50, label %51, label %73

51:                                               ; preds = %45
  %52 = load ptr, ptr %13, align 8, !tbaa !13
  %53 = load i8, ptr %52, align 1, !tbaa !17
  %54 = zext i8 %53 to i32
  %55 = and i32 %54, 63
  %56 = shl i32 %55, 8
  %57 = load ptr, ptr %13, align 8, !tbaa !13
  %58 = getelementptr inbounds i8, ptr %57, i64 1
  %59 = load i8, ptr %58, align 1, !tbaa !17
  %60 = zext i8 %59 to i32
  %61 = or i32 %56, %60
  %62 = add nsw i32 %61, 1
  store i32 %62, ptr %10, align 4, !tbaa !9
  %63 = load i32, ptr %10, align 4, !tbaa !9
  %64 = load i32, ptr %9, align 4, !tbaa !9
  %65 = add nsw i32 %64, %63
  store i32 %65, ptr %9, align 4, !tbaa !9
  %66 = load i32, ptr %10, align 4, !tbaa !9
  %67 = load ptr, ptr %8, align 8, !tbaa !20
  %68 = getelementptr inbounds i32, ptr %67, i64 0
  %69 = load i32, ptr %68, align 4, !tbaa !9
  %70 = add nsw i32 %69, %66
  store i32 %70, ptr %68, align 4, !tbaa !9
  %71 = load ptr, ptr %13, align 8, !tbaa !13
  %72 = getelementptr inbounds i8, ptr %71, i64 2
  store ptr %72, ptr %13, align 8, !tbaa !13
  br label %97

73:                                               ; preds = %45
  %74 = load ptr, ptr %13, align 8, !tbaa !13
  %75 = load i8, ptr %74, align 1, !tbaa !17
  %76 = zext i8 %75 to i32
  %77 = and i32 %76, 3
  %78 = add nsw i32 %77, 1
  store i32 %78, ptr %10, align 4, !tbaa !9
  %79 = load ptr, ptr %13, align 8, !tbaa !13
  %80 = load i8, ptr %79, align 1, !tbaa !17
  %81 = zext i8 %80 to i32
  %82 = ashr i32 %81, 2
  %83 = and i32 %82, 31
  %84 = add nsw i32 %83, 1
  store i32 %84, ptr %11, align 4, !tbaa !9
  %85 = load i32, ptr %10, align 4, !tbaa !9
  %86 = load i32, ptr %9, align 4, !tbaa !9
  %87 = add nsw i32 %86, %85
  store i32 %87, ptr %9, align 4, !tbaa !9
  %88 = load i32, ptr %10, align 4, !tbaa !9
  %89 = load ptr, ptr %8, align 8, !tbaa !20
  %90 = load i32, ptr %11, align 4, !tbaa !9
  %91 = sext i32 %90 to i64
  %92 = getelementptr inbounds i32, ptr %89, i64 %91
  %93 = load i32, ptr %92, align 4, !tbaa !9
  %94 = add nsw i32 %93, %88
  store i32 %94, ptr %92, align 4, !tbaa !9
  %95 = load ptr, ptr %13, align 8, !tbaa !13
  %96 = getelementptr inbounds nuw i8, ptr %95, i32 1
  store ptr %96, ptr %13, align 8, !tbaa !13
  br label %97

97:                                               ; preds = %73, %51
  br label %98

98:                                               ; preds = %97, %29
  br label %19, !llvm.loop !70

99:                                               ; preds = %19
  %100 = load i32, ptr %9, align 4, !tbaa !9
  %101 = icmp ne i32 %100, 16384
  br i1 %101, label %102, label %107

102:                                              ; preds = %99
  %103 = load ptr, ptr %7, align 8, !tbaa !20
  %104 = icmp ne ptr %103, null
  br i1 %104, label %105, label %107

105:                                              ; preds = %102
  %106 = load ptr, ptr %7, align 8, !tbaa !20
  store i32 1, ptr %106, align 4, !tbaa !9
  br label %107

107:                                              ; preds = %105, %102, %99
  call void @llvm.lifetime.end.p0(i64 8, ptr %13) #15
  call void @llvm.lifetime.end.p0(i64 8, ptr %12) #15
  call void @llvm.lifetime.end.p0(i64 4, ptr %11) #15
  call void @llvm.lifetime.end.p0(i64 4, ptr %10) #15
  call void @llvm.lifetime.end.p0(i64 4, ptr %9) #15
  ret void
}